; Function Attrs: mustprogress nofree norecurse nosync nounwind willreturn memory(write, argmem: readwrite, inaccessiblemem: none) uwtable
define range(i32 0, 2) i32 @ossl_cmp_msg_set_bodytype(ptr noundef readonly captures(address_is_null) %0, i32 noundef %1) local_unnamed_addr #4 {
  %.not = icmp eq ptr %0, null
  br i1 %.not, label %.critedge, label %3

3:                                                ; preds = %2
  %4 = getelementptr inbounds nuw i8, ptr %0, i64 8
  %5 = load ptr, ptr %4, align 8, !tbaa !17
  %.not5 = icmp eq ptr %5, null
  br i1 %.not5, label %.critedge, label %6, !prof !18

6:                                                ; preds = %3
  store i32 %1, ptr %5, align 8, !tbaa !19
  br label %.critedge

.critedge:                                        ; preds = %2, %3, %6
  %.0 = phi i32 [ 1, %6 ], [ 0, %3 ], [ 0, %2 ]
  ret i32 %.0
}